target datalayout = "e-m:e-p270:32:32-p271:32:32-p272:64:64-i64:64-i128:128-f80:128-n8:16:32:64-S128"
target triple = "x86_64-pc-linux-gnu"

%struct.tztry = type { i32, [5200 x i64] }
%struct.tm = type { i32, i32, i32, i32, i32, i32, i32, i32, i32, i64, ptr }
%struct.pg_tm = type { i32, i32, i32, i32, i32, i32, i32, i32, i32, i64, ptr }

@.str.6 = private unnamed_addr constant [3 x i8] c"%Z\00", align 1

; Function Attrs: nounwind uwtable
define internal zeroext i1 @compare_tm(ptr noundef %0, ptr noundef %1) #0 {
  %3 = alloca i1, align 1
  %4 = alloca ptr, align 8
  %5 = alloca ptr, align 8
  store ptr %0, ptr %4, align 8
  store ptr %1, ptr %5, align 8
  %6 = load ptr, ptr %4, align 8
  %7 = getelementptr inbounds nuw %struct.tm, ptr %6, i32 0, i32 0
  %8 = load i32, ptr %7, align 8
  %9 = load ptr, ptr %5, align 8
  %10 = getelementptr inbounds nuw %struct.pg_tm, ptr %9, i32 0, i32 0
  %11 = load i32, ptr %10, align 8
  %12 = icmp ne i32 %8, %11
  br i1 %12, label %77, label %13

13:                                               ; preds = %2
  %14 = load ptr, ptr %4, align 8
  %15 = getelementptr inbounds nuw %struct.tm, ptr %14, i32 0, i32 1
  %16 = load i32, ptr %15, align 4
  %17 = load ptr, ptr %5, align 8
  %18 = getelementptr inbounds nuw %struct.pg_tm, ptr %17, i32 0, i32 1
  %19 = load i32, ptr %18, align 4
  %20 = icmp ne i32 %16, %19
  br i1 %20, label %77, label %21

21:                                               ; preds = %13
  %22 = load ptr, ptr %4, align 8
  %23 = getelementptr inbounds nuw %struct.tm, ptr %22, i32 0, i32 2
  %24 = load i32, ptr %23, align 8
  %25 = load ptr, ptr %5, align 8
  %26 = getelementptr inbounds nuw %struct.pg_tm, ptr %25, i32 0, i32 2
  %27 = load i32, ptr %26, align 8
  %28 = icmp ne i32 %24, %27
  br i1 %28, label %77, label %29

29:                                               ; preds = %21
  %30 = load ptr, ptr %4, align 8
  %31 = getelementptr inbounds nuw %struct.tm, ptr %30, i32 0, i32 3
  %32 = load i32, ptr %31, align 4
  %33 = load ptr, ptr %5, align 8
  %34 = getelementptr inbounds nuw %struct.pg_tm, ptr %33, i32 0, i32 3
  %35 = load i32, ptr %34, align 4
  %36 = icmp ne i32 %32, %35
  br i1 %36, label %77, label %37

37:                                               ; preds = %29
  %38 = load ptr, ptr %4, align 8
  %39 = getelementptr inbounds nuw %struct.tm, ptr %38, i32 0, i32 4
  %40 = load i32, ptr %39, align 8
  %41 = load ptr, ptr %5, align 8
  %42 = getelementptr inbounds nuw %struct.pg_tm, ptr %41, i32 0, i32 4
  %43 = load i32, ptr %42, align 8
  %44 = icmp ne i32 %40, %43
  br i1 %44, label %77, label %45

45:                                               ; preds = %37
  %46 = load ptr, ptr %4, align 8
  %47 = getelementptr inbounds nuw %struct.tm, ptr %46, i32 0, i32 5
  %48 = load i32, ptr %47, align 4
  %49 = load ptr, ptr %5, align 8
  %50 = getelementptr inbounds nuw %struct.pg_tm, ptr %49, i32 0, i32 5
  %51 = load i32, ptr %50, align 4
  %52 = icmp ne i32 %48, %51
  br i1 %52, label %77, label %53

53:                                               ; preds = %45
  %54 = load ptr, ptr %4, align 8
  %55 = getelementptr inbounds nuw %struct.tm, ptr %54, i32 0, i32 6
  %56 = load i32, ptr %55, align 8
  %57 = load ptr, ptr %5, align 8
  %58 = getelementptr inbounds nuw %struct.pg_tm, ptr %57, i32 0, i32 6
  %59 = load i32, ptr %58, align 8
  %60 = icmp ne i32 %56, %59
  br i1 %60, label %77, label %61

61:                                               ; preds = %53
  %62 = load ptr, ptr %4, align 8
  %63 = getelementptr inbounds nuw %struct.tm, ptr %62, i32 0, i32 7
  %64 = load i32, ptr %63, align 4
  %65 = load ptr, ptr %5, align 8
  %66 = getelementptr inbounds nuw %struct.pg_tm, ptr %65, i32 0, i32 7
  %67 = load i32, ptr %66, align 4
  %68 = icmp ne i32 %64, %67
  br i1 %68, label %77, label %69

69:                                               ; preds = %61
  %70 = load ptr, ptr %4, align 8
  %71 = getelementptr inbounds nuw %struct.tm, ptr %70, i32 0, i32 8
  %72 = load i32, ptr %71, align 8
  %73 = load ptr, ptr %5, align 8
  %74 = getelementptr inbounds nuw %struct.pg_tm, ptr %73, i32 0, i32 8
  %75 = load i32, ptr %74, align 8
  %76 = icmp ne i32 %72, %75
  br i1 %76, label %77, label %78

77:                                               ; preds = %69, %61, %53, %45, %37, %29, %21, %13, %2
  store i1 false, ptr %3, align 1
  br label %79

78:                                               ; preds = %69
  store i1 true, ptr %3, align 1
  br label %79

79:                                               ; preds = %78, %77
  %80 = load i1, ptr %3, align 1
  ret i1 %80
}

; Function Attrs: nounwind uwtable
define internal i32 @score_timezone(ptr noundef %0, ptr noundef %1) #0 {
  %3 = alloca i32, align 4
  %4 = alloca ptr, align 8
  %5 = alloca ptr, align 8
  %6 = alloca i32, align 4
  %7 = alloca i64, align 8
  %8 = alloca ptr, align 8
  %9 = alloca ptr, align 8
  %10 = alloca [256 x i8], align 16
  %11 = alloca ptr, align 8
  %12 = alloca i32, align 4
  store ptr %0, ptr %4, align 8
  store ptr %1, ptr %5, align 8
  call void @llvm.lifetime.start.p0(i64 4, ptr %6) #6
  call void @llvm.lifetime.start.p0(i64 8, ptr %7) #6
  call void @llvm.lifetime.start.p0(i64 8, ptr %8) #6
  call void @llvm.lifetime.start.p0(i64 8, ptr %9) #6
  call void @llvm.lifetime.start.p0(i64 256, ptr %10) #6
  call void @llvm.lifetime.start.p0(i64 8, ptr %11) #6
  %13 = load ptr, ptr %4, align 8
  %14 = call ptr @pg_load_tz(ptr noundef %13)
  store ptr %14, ptr %11, align 8
  %15 = load ptr, ptr %11, align 8
  %16 = icmp ne ptr %15, null
  br i1 %16, label %18, label %17

17:                                               ; preds = %2
  store i32 -1, ptr %3, align 4
  store i32 1, ptr %12, align 4
  br label %89

18:                                               ; preds = %2
  %19 = load ptr, ptr %11, align 8
  %20 = call zeroext i1 @pg_tz_acceptable(ptr noundef %19)
  br i1 %20, label %22, label %21

21:                                               ; preds = %18
  store i32 -1, ptr %3, align 4
  store i32 1, ptr %12, align 4
  br label %89

22:                                               ; preds = %18
  store i32 0, ptr %6, align 4
  br label %23

23:                                               ; preds = %84, %22
  %24 = load i32, ptr %6, align 4
  %25 = load ptr, ptr %5, align 8
  %26 = getelementptr inbounds nuw %struct.tztry, ptr %25, i32 0, i32 0
  %27 = load i32, ptr %26, align 8
  %28 = icmp slt i32 %24, %27
  br i1 %28, label %29, label %87

29:                                               ; preds = %23
  %30 = load ptr, ptr %5, align 8
  %31 = getelementptr inbounds nuw %struct.tztry, ptr %30, i32 0, i32 1
  %32 = load i32, ptr %6, align 4
  %33 = sext i32 %32 to i64
  %34 = getelementptr inbounds [5200 x i64], ptr %31, i64 0, i64 %33
  %35 = load i64, ptr %34, align 8
  store i64 %35, ptr %7, align 8
  %36 = load ptr, ptr %11, align 8
  %37 = call ptr @pg_localtime(ptr noundef %7, ptr noundef %36)
  store ptr %37, ptr %9, align 8
  %38 = load ptr, ptr %9, align 8
  %39 = icmp ne ptr %38, null
  br i1 %39, label %41, label %40

40:                                               ; preds = %29
  store i32 -1, ptr %3, align 4
  store i32 1, ptr %12, align 4
  br label %89

41:                                               ; preds = %29
  %42 = load ptr, ptr %5, align 8
  %43 = getelementptr inbounds nuw %struct.tztry, ptr %42, i32 0, i32 1
  %44 = load i32, ptr %6, align 4
  %45 = sext i32 %44 to i64
  %46 = getelementptr inbounds [5200 x i64], ptr %43, i64 0, i64 %45
  %47 = call ptr @localtime(ptr noundef %46) #6
  store ptr %47, ptr %8, align 8
  %48 = load ptr, ptr %8, align 8
  %49 = icmp ne ptr %48, null
  br i1 %49, label %52, label %50

50:                                               ; preds = %41
  %51 = load i32, ptr %6, align 4
  store i32 %51, ptr %3, align 4
  store i32 1, ptr %12, align 4
  br label %89

52:                                               ; preds = %41
  %53 = load ptr, ptr %8, align 8
  %54 = load ptr, ptr %9, align 8
  %55 = call zeroext i1 @compare_tm(ptr noundef %53, ptr noundef %54)
  br i1 %55, label %58, label %56

56:                                               ; preds = %52
  %57 = load i32, ptr %6, align 4
  store i32 %57, ptr %3, align 4
  store i32 1, ptr %12, align 4
  br label %89

58:                                               ; preds = %52
  %59 = load ptr, ptr %8, align 8
  %60 = getelementptr inbounds nuw %struct.tm, ptr %59, i32 0, i32 8
  %61 = load i32, ptr %60, align 8
  %62 = icmp sge i32 %61, 0
  br i1 %62, label %63, label %83

63:                                               ; preds = %58
  %64 = load ptr, ptr %9, align 8
  %65 = getelementptr inbounds nuw %struct.pg_tm, ptr %64, i32 0, i32 10
  %66 = load ptr, ptr %65, align 8
  %67 = icmp eq ptr %66, null
  br i1 %67, label %68, label %69

68:                                               ; preds = %63
  store i32 -1, ptr %3, align 4
  store i32 1, ptr %12, align 4
  br label %89

69:                                               ; preds = %63
  %70 = getelementptr inbounds [256 x i8], ptr %10, i64 0, i64 0
  call void @llvm.memset.p0.i64(ptr align 16 %70, i8 0, i64 256, i1 false)
  %71 = getelementptr inbounds [256 x i8], ptr %10, i64 0, i64 0
  %72 = load ptr, ptr %8, align 8
  %73 = call i64 @strftime(ptr noundef %71, i64 noundef 255, ptr noundef @.str.6, ptr noundef %72) #6
  %74 = getelementptr inbounds [256 x i8], ptr %10, i64 0, i64 0
  %75 = load ptr, ptr %9, align 8
  %76 = getelementptr inbounds nuw %struct.pg_tm, ptr %75, i32 0, i32 10
  %77 = load ptr, ptr %76, align 8
  %78 = call i32 @strcmp(ptr noundef %74, ptr noundef %77) #7
  %79 = icmp ne i32 %78, 0
  br i1 %79, label %80, label %82

80:                                               ; preds = %69
  %81 = load i32, ptr %6, align 4
  store i32 %81, ptr %3, align 4
  store i32 1, ptr %12, align 4
  br label %89

82:                                               ; preds = %69
  br label %83

83:                                               ; preds = %82, %58
  br label %84

84:                                               ; preds = %83
  %85 = load i32, ptr %6, align 4
  %86 = add i32 %85, 1
  store i32 %86, ptr %6, align 4
  br label %23, !llvm.loop !10

87:                                               ; preds = %23
  %88 = load i32, ptr %6, align 4
  store i32 %88, ptr %3, align 4
  store i32 1, ptr %12, align 4
  br label %89

89:                                               ; preds = %87, %80, %68, %56, %50, %40, %21, %17
  call void @llvm.lifetime.end.p0(i64 8, ptr %11) #6
  call void @llvm.lifetime.end.p0(i64 256, ptr %10) #6
  call void @llvm.lifetime.end.p0(i64 8, ptr %9) #6
  call void @llvm.lifetime.end.p0(i64 8, ptr %8) #6
  call void @llvm.lifetime.end.p0(i64 8, ptr %7) #6
  call void @llvm.lifetime.end.p0(i64 4, ptr %6) #6
  %90 = load i32, ptr %3, align 4
  ret i32 %90
}