; Function Attrs: nounwind uwtable
define internal fastcc i32 @score_timezone(ptr noundef %0, ptr noundef nonnull %1) unnamed_addr #5 {
  %3 = alloca i64, align 8
  %4 = alloca [256 x i8], align 16
  call void @llvm.lifetime.start.p0(i64 8, ptr nonnull %3) #13
  call void @llvm.lifetime.start.p0(i64 256, ptr nonnull %4) #13
  %5 = tail call fastcc ptr @pg_load_tz(ptr noundef %0)
  %.not = icmp eq ptr %5, null
  br i1 %.not, label %compare_tm.exit.thread, label %6

6:                                                ; preds = %2
  %7 = tail call zeroext i1 @pg_tz_acceptable(ptr noundef nonnull %5) #13
  br i1 %7, label %.preheader, label %compare_tm.exit.thread

.preheader:                                       ; preds = %6
  %8 = getelementptr inbounds nuw i8, ptr %1, i64 8
  %9 = load i32, ptr %1, align 8
  %10 = icmp sgt i32 %9, 0
  br i1 %10, label %.lr.ph, label %compare_tm.exit.thread

.lr.ph:                                           ; preds = %.preheader, %68
  %indvars.iv = phi i64 [ %indvars.iv.next, %68 ], [ 0, %.preheader ]
  %11 = getelementptr inbounds nuw [5200 x i64], ptr %8, i64 0, i64 %indvars.iv
  %12 = load i64, ptr %11, align 8
  store i64 %12, ptr %3, align 8
  %13 = call ptr @pg_localtime(ptr noundef nonnull %3, ptr noundef nonnull %5) #13
  %.not27 = icmp eq ptr %13, null
  br i1 %.not27, label %compare_tm.exit.thread, label %14

14:                                               ; preds = %.lr.ph
  %15 = call ptr @localtime(ptr noundef nonnull %11) #13
  %.not28 = icmp eq ptr %15, null
  br i1 %.not28, label %compare_tm.exit.thread.loopexit.split.loop.exit80, label %16

16:                                               ; preds = %14
  %17 = load i32, ptr %15, align 8
  %18 = load i32, ptr %13, align 8
  %.not.i = icmp eq i32 %17, %18
  br i1 %.not.i, label %19, label %compare_tm.exit.thread.loopexit.split.loop.exit

19:                                               ; preds = %16
  %20 = getelementptr inbounds nuw i8, ptr %15, i64 4
  %21 = load i32, ptr %20, align 4
  %22 = getelementptr inbounds nuw i8, ptr %13, i64 4
  %23 = load i32, ptr %22, align 4
  %.not19.i = icmp eq i32 %21, %23
  br i1 %.not19.i, label %24, label %compare_tm.exit.thread.loopexit.split.loop.exit58

24:                                               ; preds = %19
  %25 = getelementptr inbounds nuw i8, ptr %15, i64 8
  %26 = load i32, ptr %25, align 8
  %27 = getelementptr inbounds nuw i8, ptr %13, i64 8
  %28 = load i32, ptr %27, align 8
  %.not20.i = icmp eq i32 %26, %28
  br i1 %.not20.i, label %29, label %compare_tm.exit.thread.loopexit.split.loop.exit60

29:                                               ; preds = %24
  %30 = getelementptr inbounds nuw i8, ptr %15, i64 12
  %31 = load i32, ptr %30, align 4
  %32 = getelementptr inbounds nuw i8, ptr %13, i64 12
  %33 = load i32, ptr %32, align 4
  %.not21.i = icmp eq i32 %31, %33
  br i1 %.not21.i, label %34, label %compare_tm.exit.thread.loopexit.split.loop.exit62

34:                                               ; preds = %29
  %35 = getelementptr inbounds nuw i8, ptr %15, i64 16
  %36 = load i32, ptr %35, align 8
  %37 = getelementptr inbounds nuw i8, ptr %13, i64 16
  %38 = load i32, ptr %37, align 8
  %.not22.i = icmp eq i32 %36, %38
  br i1 %.not22.i, label %39, label %compare_tm.exit.thread.loopexit.split.loop.exit64

39:                                               ; preds = %34
  %40 = getelementptr inbounds nuw i8, ptr %15, i64 20
  %41 = load i32, ptr %40, align 4
  %42 = getelementptr inbounds nuw i8, ptr %13, i64 20
  %43 = load i32, ptr %42, align 4
  %.not23.i = icmp eq i32 %41, %43
  br i1 %.not23.i, label %44, label %compare_tm.exit.thread.loopexit.split.loop.exit66

44:                                               ; preds = %39
  %45 = getelementptr inbounds nuw i8, ptr %15, i64 24
  %46 = load i32, ptr %45, align 8
  %47 = getelementptr inbounds nuw i8, ptr %13, i64 24
  %48 = load i32, ptr %47, align 8
  %.not24.i = icmp eq i32 %46, %48
  br i1 %.not24.i, label %49, label %compare_tm.exit.thread.loopexit.split.loop.exit68

49:                                               ; preds = %44
  %50 = getelementptr inbounds nuw i8, ptr %15, i64 28
  %51 = load i32, ptr %50, align 4
  %52 = getelementptr inbounds nuw i8, ptr %13, i64 28
  %53 = load i32, ptr %52, align 4
  %.not25.i = icmp eq i32 %51, %53
  br i1 %.not25.i, label %compare_tm.exit, label %compare_tm.exit.thread.loopexit.split.loop.exit70

compare_tm.exit:                                  ; preds = %49
  %54 = getelementptr inbounds nuw i8, ptr %15, i64 32
  %55 = load i32, ptr %54, align 8
  %56 = getelementptr inbounds nuw i8, ptr %13, i64 32
  %57 = load i32, ptr %56, align 8
  %.not26.i = icmp eq i32 %55, %57
  br i1 %.not26.i, label %58, label %compare_tm.exit.thread.loopexit.split.loop.exit78

58:                                               ; preds = %compare_tm.exit
  %59 = icmp sgt i32 %55, -1
  br i1 %59, label %60, label %68

60:                                               ; preds = %58
  %61 = getelementptr inbounds nuw i8, ptr %13, i64 48
  %62 = load ptr, ptr %61, align 8
  %63 = icmp eq ptr %62, null
  br i1 %63, label %compare_tm.exit.thread, label %64

64:                                               ; preds = %60
  call void @llvm.memset.p0.i64(ptr noundef nonnull align 16 dereferenceable(256) %4, i8 0, i64 256, i1 false)
  %65 = call i64 @strftime(ptr noundef nonnull %4, i64 noundef 255, ptr noundef nonnull @.str.6, ptr noundef nonnull %15) #13
  %66 = load ptr, ptr %61, align 8
  %67 = call i32 @strcmp(ptr noundef nonnull dereferenceable(1) %4, ptr noundef nonnull dereferenceable(1) %66) #14
  %.not29 = icmp eq i32 %67, 0
  br i1 %.not29, label %68, label %compare_tm.exit.thread.loopexit.split.loop.exit74

68:                                               ; preds = %58, %64
  %indvars.iv.next = add nuw nsw i64 %indvars.iv, 1
  %69 = load i32, ptr %1, align 8
  %70 = sext i32 %69 to i64
  %71 = icmp slt i64 %indvars.iv.next, %70
  br i1 %71, label %.lr.ph, label %compare_tm.exit.thread.loopexit.split.loop.exit72, !llvm.loop !9

compare_tm.exit.thread.loopexit.split.loop.exit:  ; preds = %16
  %72 = trunc nuw nsw i64 %indvars.iv to i32
  br label %compare_tm.exit.thread

compare_tm.exit.thread.loopexit.split.loop.exit58: ; preds = %19
  %73 = trunc nuw nsw i64 %indvars.iv to i32
  br label %compare_tm.exit.thread

compare_tm.exit.thread.loopexit.split.loop.exit60: ; preds = %24
  %74 = trunc nuw nsw i64 %indvars.iv to i32
  br label %compare_tm.exit.thread

compare_tm.exit.thread.loopexit.split.loop.exit62: ; preds = %29
  %75 = trunc nuw nsw i64 %indvars.iv to i32
  br label %compare_tm.exit.thread

compare_tm.exit.thread.loopexit.split.loop.exit64: ; preds = %34
  %76 = trunc nuw nsw i64 %indvars.iv to i32
  br label %compare_tm.exit.thread

compare_tm.exit.thread.loopexit.split.loop.exit66: ; preds = %39
  %77 = trunc nuw nsw i64 %indvars.iv to i32
  br label %compare_tm.exit.thread

compare_tm.exit.thread.loopexit.split.loop.exit68: ; preds = %44
  %78 = trunc nuw nsw i64 %indvars.iv to i32
  br label %compare_tm.exit.thread

compare_tm.exit.thread.loopexit.split.loop.exit70: ; preds = %49
  %79 = trunc nuw nsw i64 %indvars.iv to i32
  br label %compare_tm.exit.thread

compare_tm.exit.thread.loopexit.split.loop.exit72: ; preds = %68
  %indvars.le = trunc i64 %indvars.iv.next to i32
  br label %compare_tm.exit.thread

compare_tm.exit.thread.loopexit.split.loop.exit74: ; preds = %64
  %80 = trunc nuw nsw i64 %indvars.iv to i32
  br label %compare_tm.exit.thread

compare_tm.exit.thread.loopexit.split.loop.exit78: ; preds = %compare_tm.exit
  %81 = trunc nuw nsw i64 %indvars.iv to i32
  br label %compare_tm.exit.thread

compare_tm.exit.thread.loopexit.split.loop.exit80: ; preds = %14
  %82 = trunc nuw nsw i64 %indvars.iv to i32
  br label %compare_tm.exit.thread

compare_tm.exit.thread:                           ; preds = %60, %.lr.ph, %compare_tm.exit.thread.loopexit.split.loop.exit, %compare_tm.exit.thread.loopexit.split.loop.exit58, %compare_tm.exit.thread.loopexit.split.loop.exit60, %compare_tm.exit.thread.loopexit.split.loop.exit62, %compare_tm.exit.thread.loopexit.split.loop.exit64, %compare_tm.exit.thread.loopexit.split.loop.exit66, %compare_tm.exit.thread.loopexit.split.loop.exit68, %compare_tm.exit.thread.loopexit.split.loop.exit70, %compare_tm.exit.thread.loopexit.split.loop.exit72, %compare_tm.exit.thread.loopexit.split.loop.exit74, %compare_tm.exit.thread.loopexit.split.loop.exit78, %compare_tm.exit.thread.loopexit.split.loop.exit80, %.preheader, %6, %2
  %.0 = phi i32 [ -1, %2 ], [ -1, %6 ], [ 0, %.preheader ], [ %72, %compare_tm.exit.thread.loopexit.split.loop.exit ], [ %73, %compare_tm.exit.thread.loopexit.split.loop.exit58 ], [ %74, %compare_tm.exit.thread.loopexit.split.loop.exit60 ], [ %75, %compare_tm.exit.thread.loopexit.split.loop.exit62 ], [ %76, %compare_tm.exit.thread.loopexit.split.loop.exit64 ], [ %77, %compare_tm.exit.thread.loopexit.split.loop.exit66 ], [ %78, %compare_tm.exit.thread.loopexit.split.loop.exit68 ], [ %79, %compare_tm.exit.thread.loopexit.split.loop.exit70 ], [ %indvars.le, %compare_tm.exit.thread.loopexit.split.loop.exit72 ], [ %80, %compare_tm.exit.thread.loopexit.split.loop.exit74 ], [ %81, %compare_tm.exit.thread.loopexit.split.loop.exit78 ], [ %82, %compare_tm.exit.thread.loopexit.split.loop.exit80 ], [ -1, %.lr.ph ], [ -1, %60 ]
  call void @llvm.lifetime.end.p0(i64 256, ptr nonnull %4) #13
  call void @llvm.lifetime.end.p0(i64 8, ptr nonnull %3) #13
  ret i32 %.0
}